---
triple:          'arm64-apple-darwin'
binary-path:     '/Users/silviomoramendoza/Desktop/Structured Programming/Proyecto/AutoDoc/output/6_paciente'
relocations:
  - { offsetInCU: 0x52, offset: 0x52, size: 0x8, addend: 0x0, symName: __ZL16archivoPacientes, symObjAddr: 0x32200, symBinAddr: 0x100010000, symSize: 0x0 }
  - { offsetInCU: 0x30DC, offset: 0x30DC, size: 0x8, addend: 0x0, symName: __ZNSt3__124__put_character_sequenceB7v160006IcNS_11char_traitsIcEEEERNS_13basic_ostreamIT_T0_EES7_PKS4_m, symObjAddr: 0x5FB8, symBinAddr: 0x10000828C, symSize: 0x1F4 }
  - { offsetInCU: 0x3FD4, offset: 0x3FD4, size: 0x8, addend: 0x0, symName: __ZNSt3__16copy_nB7v160006IPKcmPcEENS_9enable_ifIXsr33__is_cpp17_random_access_iteratorIT_EE5valueET1_E4typeES5_T0_S6_, symObjAddr: 0x798C, symBinAddr: 0x100009C60, symSize: 0x44 }
  - { offsetInCU: 0x5049, offset: 0x5049, size: 0x8, addend: 0x0, symName: __ZNSt3__1neB7v160006IPcEEbRKNS_11__wrap_iterIT_EES6_, symObjAddr: 0x1F8, symBinAddr: 0x1000024CC, symSize: 0x34 }
  - { offsetInCU: 0x589F, offset: 0x589F, size: 0x8, addend: 0x0, symName: __ZNSt3__1lsB7v160006INS_11char_traitsIcEEEERNS_13basic_ostreamIcT_EES6_c, symObjAddr: 0x8DC, symBinAddr: 0x100002BB0, symSize: 0x34 }
  - { offsetInCU: 0x58E5, offset: 0x58E5, size: 0x8, addend: 0x0, symName: __ZNSt3__1lsB7v160006IcNS_11char_traitsIcEENS_9allocatorIcEEEERNS_13basic_ostreamIT_T0_EES9_RKNS_12basic_stringIS6_S7_T1_EE, symObjAddr: 0x910, symBinAddr: 0x100002BE4, symSize: 0x4C }
  - { offsetInCU: 0x593D, offset: 0x593D, size: 0x8, addend: 0x0, symName: __ZNSt3__1lsB7v160006INS_11char_traitsIcEEEERNS_13basic_ostreamIcT_EES6_PKc, symObjAddr: 0x9B4, symBinAddr: 0x100002C88, symSize: 0x48 }
  - { offsetInCU: 0x5983, offset: 0x5983, size: 0x8, addend: 0x0, symName: __ZNSt3__14endlB7v160006IcNS_11char_traitsIcEEEERNS_13basic_ostreamIT_T0_EES7_, symObjAddr: 0xA28, symBinAddr: 0x100002CFC, symSize: 0x58 }
  - { offsetInCU: 0x6348, offset: 0x6348, size: 0x8, addend: 0x0, symName: __ZNSt3__17getlineB7v160006IcNS_11char_traitsIcEENS_9allocatorIcEEEERNS_13basic_istreamIT_T0_EES9_RNS_12basic_stringIS6_S7_T1_EES6_, symObjAddr: 0x1170, symBinAddr: 0x100003444, symSize: 0x238 }
  - { offsetInCU: 0x6406, offset: 0x6406, size: 0x8, addend: 0x0, symName: __ZNSt3__17getlineB7v160006IcNS_11char_traitsIcEENS_9allocatorIcEEEERNS_13basic_istreamIT_T0_EES9_RNS_12basic_stringIS6_S7_T1_EE, symObjAddr: 0x13A8, symBinAddr: 0x10000367C, symSize: 0x5C }
  - { offsetInCU: 0x645E, offset: 0x645E, size: 0x8, addend: 0x0, symName: __ZNSt3__1rsB7v160006IcNS_11char_traitsIcEENS_9allocatorIcEEEERNS_13basic_istreamIT_T0_EES9_RNS_12basic_stringIS6_S7_T1_EE, symObjAddr: 0x1404, symBinAddr: 0x1000036D8, symSize: 0x310 }
  - { offsetInCU: 0x6737, offset: 0x6737, size: 0x8, addend: 0x0, symName: __ZNSt3__1eqB7v160006IcNS_11char_traitsIcEENS_9allocatorIcEEEEbRKNS_12basic_stringIT_T0_T1_EEPKS6_, symObjAddr: 0x25CC, symBinAddr: 0x1000048A0, symSize: 0xC0 }
  - { offsetInCU: 0x6909, offset: 0x6909, size: 0x8, addend: 0x0, symName: __ZNSt3__1plB7v160006IcNS_11char_traitsIcEENS_9allocatorIcEEEENS_12basic_stringIT_T0_T1_EERKS9_SB_, symObjAddr: 0x2880, symBinAddr: 0x100004B54, symSize: 0x134 }
  - { offsetInCU: 0x69AA, offset: 0x69AA, size: 0x8, addend: 0x0, symName: __ZNSt3__1plB7v160006IcNS_11char_traitsIcEENS_9allocatorIcEEEENS_12basic_stringIT_T0_T1_EERKS9_S6_, symObjAddr: 0x29B4, symBinAddr: 0x100004C88, symSize: 0x110 }
  - { offsetInCU: 0x6A47, offset: 0x6A47, size: 0x8, addend: 0x0, symName: __ZNSt3__1eqB7v160006INS_9allocatorIcEEEEbRKNS_12basic_stringIcNS_11char_traitsIcEET_EES9_, symObjAddr: 0x4150, symBinAddr: 0x100006424, symSize: 0x148 }
  - { offsetInCU: 0x6ABA, offset: 0x6ABA, size: 0x8, addend: 0x0, symName: __ZNSt3__1rsB7v160006IcNS_11char_traitsIcEEEERNS_13basic_istreamIT_T0_EES7_RS4_, symObjAddr: 0x4C64, symBinAddr: 0x100006F38, symSize: 0x18C }
  - { offsetInCU: 0x6B3C, offset: 0x6B3C, size: 0x8, addend: 0x0, symName: __ZNSt3__119__debug_db_insert_cB7v160006INS_12basic_stringIcNS_11char_traitsIcEENS_9allocatorIcEEEEEEvPT_, symObjAddr: 0x59A8, symBinAddr: 0x100007C7C, symSize: 0x10 }
  - { offsetInCU: 0x6B6D, offset: 0x6B6D, size: 0x8, addend: 0x0, symName: __ZNSt3__118__constexpr_strlenB7v160006EPKc, symObjAddr: 0x5A74, symBinAddr: 0x100007D48, symSize: 0x24 }
  - { offsetInCU: 0x6B99, offset: 0x6B99, size: 0x8, addend: 0x0, symName: __ZNSt3__130__libcpp_is_constant_evaluatedB7v160006Ev, symObjAddr: 0x5C44, symBinAddr: 0x100007F18, symSize: 0xC }
  - { offsetInCU: 0x6BE9, offset: 0x6BE9, size: 0x8, addend: 0x0, symName: __ZNSt3__1eqB7v160006IPcEEbRKNS_11__wrap_iterIT_EES6_, symObjAddr: 0x5D84, symBinAddr: 0x100008058, symSize: 0x48 }
  - { offsetInCU: 0x6C2C, offset: 0x6C2C, size: 0x8, addend: 0x0, symName: __ZNSt3__116__pad_and_outputB7v160006IcNS_11char_traitsIcEEEENS_19ostreambuf_iteratorIT_T0_EES6_PKS4_S8_S8_RNS_8ios_baseES4_, symObjAddr: 0x61F0, symBinAddr: 0x1000084C4, symSize: 0x248 }
  - { offsetInCU: 0x6CFB, offset: 0x6CFB, size: 0x8, addend: 0x0, symName: __ZNSt3__19use_facetB7v160006INS_5ctypeIcEEEERKT_RKNS_6localeE, symObjAddr: 0x6774, symBinAddr: 0x100008A48, symSize: 0x2C }
  - { offsetInCU: 0x70DB, offset: 0x70DB, size: 0x8, addend: 0x0, symName: __ZNSt3__112__to_addressB7v160006IKcEEPT_S3_, symObjAddr: 0x67D8, symBinAddr: 0x100008AAC, symSize: 0x14 }
  - { offsetInCU: 0x7143, offset: 0x7143, size: 0x8, addend: 0x0, symName: __ZNSt3__117__libcpp_allocateB7v160006Emm, symObjAddr: 0x701C, symBinAddr: 0x1000092F0, symSize: 0x28 }
  - { offsetInCU: 0x7180, offset: 0x7180, size: 0x8, addend: 0x0, symName: __ZNSt3__121__libcpp_operator_newB7v160006IJmEEEPvDpT_, symObjAddr: 0x7058, symBinAddr: 0x10000932C, symSize: 0x24 }
  - { offsetInCU: 0x71B9, offset: 0x71B9, size: 0x8, addend: 0x0, symName: __ZNSt3__125__debug_db_invalidate_allB7v160006INS_12basic_stringIcNS_11char_traitsIcEENS_9allocatorIcEEEEEEvPT_, symObjAddr: 0x739C, symBinAddr: 0x100009670, symSize: 0x10 }
  - { offsetInCU: 0x73EC, offset: 0x73EC, size: 0x8, addend: 0x0, symName: __ZNSt3__112__to_addressB7v160006IcEEPT_S2_, symObjAddr: 0x763C, symBinAddr: 0x100009910, symSize: 0x14 }
  - { offsetInCU: 0x7421, offset: 0x7421, size: 0x8, addend: 0x0, symName: __ZNSt3__120__throw_length_errorB7v160006EPKc, symObjAddr: 0x78A8, symBinAddr: 0x100009B7C, symSize: 0x64 }
  - { offsetInCU: 0x7449, offset: 0x7449, size: 0x8, addend: 0x0, symName: __ZNSt3__14copyB7v160006IPKcPcEET0_T_S5_S4_, symObjAddr: 0x79D0, symBinAddr: 0x100009CA4, symSize: 0x40 }
  - { offsetInCU: 0x74A3, offset: 0x74A3, size: 0x8, addend: 0x0, symName: __ZNSt3__16__copyB7v160006INS_17_ClassicAlgPolicyEPKcS3_PcEENS_4pairIT0_T2_EES6_T1_S7_, symObjAddr: 0x7A10, symBinAddr: 0x100009CE4, symSize: 0x44 }
  - { offsetInCU: 0x750F, offset: 0x750F, size: 0x8, addend: 0x0, symName: __ZNSt3__123__dispatch_copy_or_moveB7v160006INS_17_ClassicAlgPolicyENS_11__copy_loopIS1_EENS_14__copy_trivialEPKcS6_PcEENS_4pairIT2_T4_EES9_T3_SA_, symObjAddr: 0x7A54, symBinAddr: 0x100009D28, symSize: 0x54 }
  - { offsetInCU: 0x758D, offset: 0x758D, size: 0x8, addend: 0x0, symName: __ZNSt3__121__unwrap_and_dispatchB7v160006INS_10__overloadINS_11__copy_loopINS_17_ClassicAlgPolicyEEENS_14__copy_trivialEEEPKcS8_PcLi0EEENS_4pairIT0_T2_EESB_T1_SC_, symObjAddr: 0x7AA8, symBinAddr: 0x100009D7C, symSize: 0xB4 }
  - { offsetInCU: 0x761B, offset: 0x761B, size: 0x8, addend: 0x0, symName: __ZNSt3__114__unwrap_rangeB7v160006IPKcS2_EENS_4pairIT0_S4_EET_S6_, symObjAddr: 0x7B5C, symBinAddr: 0x100009E30, symSize: 0x60 }
  - { offsetInCU: 0x775A, offset: 0x775A, size: 0x8, addend: 0x0, symName: __ZNSt3__113__unwrap_iterB7v160006IPcNS_18__unwrap_iter_implIS1_Lb1EEELi0EEEDTclsrT0_8__unwrapclsr3stdE7declvalIT_EEEES5_, symObjAddr: 0x7C04, symBinAddr: 0x100009ED8, symSize: 0x24 }
  - { offsetInCU: 0x779E, offset: 0x779E, size: 0x8, addend: 0x0, symName: __ZNSt3__19make_pairB7v160006IPKcPcEENS_4pairINS_18__unwrap_ref_decayIT_E4typeENS5_IT0_E4typeEEEOS6_OS9_, symObjAddr: 0x7C28, symBinAddr: 0x100009EFC, symSize: 0x38 }
  - { offsetInCU: 0x77ED, offset: 0x77ED, size: 0x8, addend: 0x0, symName: __ZNSt3__114__rewrap_rangeB7v160006IPKcS2_EET_S3_T0_, symObjAddr: 0x7C60, symBinAddr: 0x100009F34, symSize: 0x2C }
  - { offsetInCU: 0x7839, offset: 0x7839, size: 0x8, addend: 0x0, symName: __ZNSt3__113__rewrap_iterB7v160006IPcS1_NS_18__unwrap_iter_implIS1_Lb1EEEEET_S4_T0_, symObjAddr: 0x7C8C, symBinAddr: 0x100009F60, symSize: 0x50 }
  - { offsetInCU: 0x788E, offset: 0x788E, size: 0x8, addend: 0x0, symName: __ZNSt3__19make_pairB7v160006IPKcS2_EENS_4pairINS_18__unwrap_ref_decayIT_E4typeENS4_IT0_E4typeEEEOS5_OS8_, symObjAddr: 0x7CDC, symBinAddr: 0x100009FB0, symSize: 0x38 }
  - { offsetInCU: 0x78DD, offset: 0x78DD, size: 0x8, addend: 0x0, symName: __ZNSt3__113__unwrap_iterB7v160006IPKcNS_18__unwrap_iter_implIS2_Lb1EEELi0EEEDTclsrT0_8__unwrapclsr3stdE7declvalIT_EEEES6_, symObjAddr: 0x7D14, symBinAddr: 0x100009FE8, symSize: 0x24 }
  - { offsetInCU: 0x7A21, offset: 0x7A21, size: 0x8, addend: 0x0, symName: __ZNSt3__119__copy_trivial_implB7v160006IKccEENS_4pairIPT_PT0_EES4_S4_S6_, symObjAddr: 0x7DCC, symBinAddr: 0x10000A0A0, symSize: 0x7C }
  - { offsetInCU: 0x7A89, offset: 0x7A89, size: 0x8, addend: 0x0, symName: __ZNSt3__19make_pairB7v160006IRPKcPcEENS_4pairINS_18__unwrap_ref_decayIT_E4typeENS6_IT0_E4typeEEEOS7_OSA_, symObjAddr: 0x7E48, symBinAddr: 0x10000A11C, symSize: 0x38 }
  - { offsetInCU: 0x7B2B, offset: 0x7B2B, size: 0x8, addend: 0x0, symName: __ZNSt3__113__rewrap_iterB7v160006IPKcS2_NS_18__unwrap_iter_implIS2_Lb1EEEEET_S5_T0_, symObjAddr: 0x7F14, symBinAddr: 0x10000A1E8, symSize: 0x50 }
  - { offsetInCU: 0x7B80, offset: 0x7B80, size: 0x8, addend: 0x0, symName: __ZNSt3__16fill_nB7v160006IPcmcEET_S2_T0_RKT1_, symObjAddr: 0x7FF4, symBinAddr: 0x10000A2C8, symSize: 0x44 }
  - { offsetInCU: 0x7BE3, offset: 0x7BE3, size: 0x8, addend: 0x0, symName: __ZNSt3__18__fill_nB7v160006IPcmcEET_S2_T0_RKT1_, symObjAddr: 0x8038, symBinAddr: 0x10000A30C, symSize: 0x64 }
  - { offsetInCU: 0x7C46, offset: 0x7C46, size: 0x8, addend: 0x0, symName: __ZNSt3__121__convert_to_integralB7v160006Em, symObjAddr: 0x809C, symBinAddr: 0x10000A370, symSize: 0x14 }
  - { offsetInCU: 0x7C72, offset: 0x7C72, size: 0x8, addend: 0x0, symName: __ZNSt3__110__str_findB7v160006IcmNS_11char_traitsIcEELm18446744073709551615EEET0_PKT_S3_S6_S3_S3_, symObjAddr: 0x80B0, symBinAddr: 0x10000A384, symSize: 0xE4 }
  - { offsetInCU: 0x7D19, offset: 0x7D19, size: 0x8, addend: 0x0, symName: __ZNSt3__118__search_substringB7v160006IcNS_11char_traitsIcEEEEPKT_S5_S5_S5_S5_, symObjAddr: 0x8194, symBinAddr: 0x10000A468, symSize: 0x154 }
  - { offsetInCU: 0x7DB3, offset: 0x7DB3, size: 0x8, addend: 0x0, symName: __ZNSt3__123__constexpr_char_memchrB7v160006EPKcim, symObjAddr: 0x83EC, symBinAddr: 0x10000A6C0, symSize: 0x34 }
  - { offsetInCU: 0x7DFB, offset: 0x7DFB, size: 0x8, addend: 0x0, symName: __ZNSt3__118__constexpr_memcmpB7v160006IcEEiPKT_S3_m, symObjAddr: 0x8420, symBinAddr: 0x10000A6F4, symSize: 0x34 }
  - { offsetInCU: 0x8050, offset: 0x8050, size: 0x8, addend: 0x0, symName: __ZSt28__throw_bad_array_new_lengthB7v160006v, symObjAddr: 0x6FE8, symBinAddr: 0x1000092BC, symSize: 0x34 }
  - { offsetInCU: 0x8605, offset: 0x8605, size: 0x8, addend: 0x0, symName: __Z7toupperi, symObjAddr: 0x244, symBinAddr: 0x100002518, symSize: 0x24 }
  - { offsetInCU: 0xA581, offset: 0xA581, size: 0x8, addend: 0x0, symName: __ZNSt3__112basic_stringIcNS_11char_traitsIcEENS_9allocatorIcEEEC1B7v160006IDnEEPKc, symObjAddr: 0x0, symBinAddr: 0x1000022D4, symSize: 0x34 }
  - { offsetInCU: 0xA5BE, offset: 0xA5BE, size: 0x8, addend: 0x0, symName: __Z14convertirMayusRKNSt3__112basic_stringIcNS_11char_traitsIcEENS_9allocatorIcEEEE, symObjAddr: 0x34, symBinAddr: 0x100002308, symSize: 0x110 }
  - { offsetInCU: 0xA644, offset: 0xA644, size: 0x8, addend: 0x0, symName: __ZNSt3__112basic_stringIcNS_11char_traitsIcEENS_9allocatorIcEEE5beginB7v160006Ev, symObjAddr: 0x144, symBinAddr: 0x100002418, symSize: 0x60 }
  - { offsetInCU: 0xA66A, offset: 0xA66A, size: 0x8, addend: 0x0, symName: __ZNSt3__112basic_stringIcNS_11char_traitsIcEENS_9allocatorIcEEE3endB7v160006Ev, symObjAddr: 0x1A4, symBinAddr: 0x100002478, symSize: 0x54 }
  - { offsetInCU: 0xA690, offset: 0xA690, size: 0x8, addend: 0x0, symName: __ZNKSt3__111__wrap_iterIPcEdeB7v160006Ev, symObjAddr: 0x22C, symBinAddr: 0x100002500, symSize: 0x18 }
  - { offsetInCU: 0xA6B6, offset: 0xA6B6, size: 0x8, addend: 0x0, symName: __ZNSt3__111__wrap_iterIPcEppB7v160006Ev, symObjAddr: 0x268, symBinAddr: 0x10000253C, symSize: 0x20 }
  - { offsetInCU: 0xA6DB, offset: 0xA6DB, size: 0x8, addend: 0x0, symName: __Z13esFechaValidaiii, symObjAddr: 0x294, symBinAddr: 0x100002568, symSize: 0x1C4 }
  - { offsetInCU: 0xA724, offset: 0xA724, size: 0x8, addend: 0x0, symName: __Z15guardarRegistroRK9registroP, symObjAddr: 0x458, symBinAddr: 0x10000272C, symSize: 0x2DC }
  - { offsetInCU: 0xA7F5, offset: 0xA7F5, size: 0x8, addend: 0x0, symName: __ZNSt3__114basic_ofstreamIcNS_11char_traitsIcEEEC1ERKNS_12basic_stringIcS2_NS_9allocatorIcEEEEj, symObjAddr: 0x734, symBinAddr: 0x100002A08, symSize: 0x17C }
  - { offsetInCU: 0xA83F, offset: 0xA83F, size: 0x8, addend: 0x0, symName: __ZNKSt3__114basic_ofstreamIcNS_11char_traitsIcEEE7is_openEv, symObjAddr: 0x8B0, symBinAddr: 0x100002B84, symSize: 0x2C }
  - { offsetInCU: 0xA867, offset: 0xA867, size: 0x8, addend: 0x0, symName: __ZNSt3__114basic_ofstreamIcNS_11char_traitsIcEEE5closeEv, symObjAddr: 0x95C, symBinAddr: 0x100002C30, symSize: 0x58 }
  - { offsetInCU: 0xA88F, offset: 0xA88F, size: 0x8, addend: 0x0, symName: __ZNSt3__113basic_ostreamIcNS_11char_traitsIcEEElsB7v160006EPFRS3_S4_E, symObjAddr: 0x9FC, symBinAddr: 0x100002CD0, symSize: 0x2C }
  - { offsetInCU: 0xA8C8, offset: 0xA8C8, size: 0x8, addend: 0x0, symName: __ZNSt3__114basic_ofstreamIcNS_11char_traitsIcEEED1Ev, symObjAddr: 0xA80, symBinAddr: 0x100002D54, symSize: 0x70 }
  - { offsetInCU: 0xA8F5, offset: 0xA8F5, size: 0x8, addend: 0x0, symName: __Z24cargarRegistroDesdeLineaRKNSt3__112basic_stringIcNS_11char_traitsIcEENS_9allocatorIcEEEER9registroP, symObjAddr: 0xAF0, symBinAddr: 0x100002DC4, symSize: 0x538 }
  - { offsetInCU: 0xAAC1, offset: 0xAAC1, size: 0x8, addend: 0x0, symName: __ZNSt3__118basic_stringstreamIcNS_11char_traitsIcEENS_9allocatorIcEEEC1B7v160006ERKNS_12basic_stringIcS2_S4_EEj, symObjAddr: 0x1028, symBinAddr: 0x1000032FC, symSize: 0x11C }
  - { offsetInCU: 0xAB09, offset: 0xAB09, size: 0x8, addend: 0x0, symName: __ZNSt3__112basic_stringIcNS_11char_traitsIcEENS_9allocatorIcEEEC1B7v160006Ev, symObjAddr: 0x1144, symBinAddr: 0x100003418, symSize: 0x2C }
  - { offsetInCU: 0xAB38, offset: 0xAB38, size: 0x8, addend: 0x0, symName: __ZNSt3__118basic_stringstreamIcNS_11char_traitsIcEENS_9allocatorIcEEED1Ev, symObjAddr: 0x1714, symBinAddr: 0x1000039E8, symSize: 0x70 }
  - { offsetInCU: 0xAB65, offset: 0xAB65, size: 0x8, addend: 0x0, symName: __Z13crearPacientev, symObjAddr: 0x1784, symBinAddr: 0x100003A58, symSize: 0x484 }
  - { offsetInCU: 0xACA0, offset: 0xACA0, size: 0x8, addend: 0x0, symName: __ZN9registroPC1Ev, symObjAddr: 0x1C08, symBinAddr: 0x100003EDC, symSize: 0x2C }
  - { offsetInCU: 0xACCC, offset: 0xACCC, size: 0x8, addend: 0x0, symName: __ZNSt3__114numeric_limitsIlE3maxB7v160006Ev, symObjAddr: 0x1C34, symBinAddr: 0x100003F08, symSize: 0x14 }
  - { offsetInCU: 0xACE0, offset: 0xACE0, size: 0x8, addend: 0x0, symName: __ZN9registroPD1Ev, symObjAddr: 0x1C48, symBinAddr: 0x100003F1C, symSize: 0x2C }
  - { offsetInCU: 0xAD0C, offset: 0xAD0C, size: 0x8, addend: 0x0, symName: __Z15buscarPacientesv, symObjAddr: 0x1C74, symBinAddr: 0x100003F48, symSize: 0x950 }
  - { offsetInCU: 0xADA2, offset: 0xADA2, size: 0x8, addend: 0x0, symName: __ZNSt3__111char_traitsIcE3eofEv, symObjAddr: 0x25C4, symBinAddr: 0x100004898, symSize: 0x8 }
  - { offsetInCU: 0xADCF, offset: 0xADCF, size: 0x8, addend: 0x0, symName: __ZNSt3__114basic_ifstreamIcNS_11char_traitsIcEEEC1ERKNS_12basic_stringIcS2_NS_9allocatorIcEEEEj, symObjAddr: 0x268C, symBinAddr: 0x100004960, symSize: 0x17C }
  - { offsetInCU: 0xAE19, offset: 0xAE19, size: 0x8, addend: 0x0, symName: __ZNKSt3__114basic_ifstreamIcNS_11char_traitsIcEEE7is_openEv, symObjAddr: 0x2808, symBinAddr: 0x100004ADC, symSize: 0x2C }
  - { offsetInCU: 0xAE41, offset: 0xAE41, size: 0x8, addend: 0x0, symName: __ZNKSt3__19basic_iosIcNS_11char_traitsIcEEEcvPvB7v160006Ev, symObjAddr: 0x2834, symBinAddr: 0x100004B08, symSize: 0x4C }
  - { offsetInCU: 0xAE67, offset: 0xAE67, size: 0x8, addend: 0x0, symName: __ZNKSt3__112basic_stringIcNS_11char_traitsIcEENS_9allocatorIcEEE4findB7v160006ERKS5_m, symObjAddr: 0x2AC4, symBinAddr: 0x100004D98, symSize: 0x78 }
  - { offsetInCU: 0xAEAD, offset: 0xAEAD, size: 0x8, addend: 0x0, symName: __ZNSt3__114basic_ifstreamIcNS_11char_traitsIcEEE5closeEv, symObjAddr: 0x2B3C, symBinAddr: 0x100004E10, symSize: 0x58 }
  - { offsetInCU: 0xAEDA, offset: 0xAEDA, size: 0x8, addend: 0x0, symName: __ZNSt3__114basic_ifstreamIcNS_11char_traitsIcEEED1Ev, symObjAddr: 0x2B94, symBinAddr: 0x100004E68, symSize: 0x70 }
  - { offsetInCU: 0xAF07, offset: 0xAF07, size: 0x8, addend: 0x0, symName: __Z15listarPacientesv, symObjAddr: 0x2C04, symBinAddr: 0x100004ED8, symSize: 0x580 }
  - { offsetInCU: 0xAF6A, offset: 0xAF6A, size: 0x8, addend: 0x0, symName: __Z18actualizarPacientev, symObjAddr: 0x3184, symBinAddr: 0x100005458, symSize: 0xE38 }
  - { offsetInCU: 0xB057, offset: 0xB057, size: 0x8, addend: 0x0, symName: __ZNSt3__114basic_ofstreamIcNS_11char_traitsIcEEEC1EPKcj, symObjAddr: 0x3FD4, symBinAddr: 0x1000062A8, symSize: 0x17C }
  - { offsetInCU: 0xB0A1, offset: 0xB0A1, size: 0x8, addend: 0x0, symName: __ZNKSt3__112basic_stringIcNS_11char_traitsIcEENS_9allocatorIcEEE5c_strB7v160006Ev, symObjAddr: 0x4298, symBinAddr: 0x10000656C, symSize: 0x24 }
  - { offsetInCU: 0xB0C7, offset: 0xB0C7, size: 0x8, addend: 0x0, symName: __Z16eliminarPacientev, symObjAddr: 0x42BC, symBinAddr: 0x100006590, symSize: 0x9A8 }
  - { offsetInCU: 0xB1C5, offset: 0xB1C5, size: 0x8, addend: 0x0, symName: _main, symObjAddr: 0x4DF0, symBinAddr: 0x1000070C4, symSize: 0x424 }
  - { offsetInCU: 0xB1FF, offset: 0xB1FF, size: 0x8, addend: 0x0, symName: __ZNKSt3__19basic_iosIcNS_11char_traitsIcEEEntB7v160006Ev, symObjAddr: 0x522C, symBinAddr: 0x100007500, symSize: 0x28 }
  - { offsetInCU: 0xB225, offset: 0xB225, size: 0x8, addend: 0x0, symName: __ZNSt3__19basic_iosIcNS_11char_traitsIcEEE5clearB7v160006Ej, symObjAddr: 0x5254, symBinAddr: 0x100007528, symSize: 0x2C }
  - { offsetInCU: 0xB25A, offset: 0xB25A, size: 0x8, addend: 0x0, symName: __ZNSt3__114basic_ofstreamIcNS_11char_traitsIcEEED2Ev, symObjAddr: 0x5280, symBinAddr: 0x100007554, symSize: 0x9C }
  - { offsetInCU: 0xB294, offset: 0xB294, size: 0x8, addend: 0x0, symName: __ZTv0_n24_NSt3__114basic_ofstreamIcNS_11char_traitsIcEEED1Ev, symObjAddr: 0x531C, symBinAddr: 0x1000075F0, symSize: 0x28 }
  - { offsetInCU: 0xB2AB, offset: 0xB2AB, size: 0x8, addend: 0x0, symName: __ZNSt3__118basic_stringstreamIcNS_11char_traitsIcEENS_9allocatorIcEEED2Ev, symObjAddr: 0x5344, symBinAddr: 0x100007618, symSize: 0xA4 }
  - { offsetInCU: 0xB2E5, offset: 0xB2E5, size: 0x8, addend: 0x0, symName: __ZThn16_NSt3__118basic_stringstreamIcNS_11char_traitsIcEENS_9allocatorIcEEED1Ev, symObjAddr: 0x53E8, symBinAddr: 0x1000076BC, symSize: 0x1C }
  - { offsetInCU: 0xB2FC, offset: 0xB2FC, size: 0x8, addend: 0x0, symName: __ZTv0_n24_NSt3__118basic_stringstreamIcNS_11char_traitsIcEENS_9allocatorIcEEED1Ev, symObjAddr: 0x5404, symBinAddr: 0x1000076D8, symSize: 0x28 }
  - { offsetInCU: 0xB318, offset: 0xB318, size: 0x8, addend: 0x0, symName: __ZNSt3__115basic_stringbufIcNS_11char_traitsIcEENS_9allocatorIcEEED1Ev, symObjAddr: 0x542C, symBinAddr: 0x100007700, symSize: 0x2C }
  - { offsetInCU: 0xB345, offset: 0xB345, size: 0x8, addend: 0x0, symName: __ZNSt3__115basic_stringbufIcNS_11char_traitsIcEENS_9allocatorIcEEED2Ev, symObjAddr: 0x5458, symBinAddr: 0x10000772C, symSize: 0x78 }
  - { offsetInCU: 0xB372, offset: 0xB372, size: 0x8, addend: 0x0, symName: __ZN9registroPC2Ev, symObjAddr: 0x54D0, symBinAddr: 0x1000077A4, symSize: 0x9C }
  - { offsetInCU: 0xB3A3, offset: 0xB3A3, size: 0x8, addend: 0x0, symName: __ZN6nombreC1Ev, symObjAddr: 0x556C, symBinAddr: 0x100007840, symSize: 0x2C }
  - { offsetInCU: 0xB3CF, offset: 0xB3CF, size: 0x8, addend: 0x0, symName: __ZN6nombreD1Ev, symObjAddr: 0x5598, symBinAddr: 0x10000786C, symSize: 0x2C }
  - { offsetInCU: 0xB3FB, offset: 0xB3FB, size: 0x8, addend: 0x0, symName: __ZN6nombreC2Ev, symObjAddr: 0x55C4, symBinAddr: 0x100007898, symSize: 0xD0 }
  - { offsetInCU: 0xB427, offset: 0xB427, size: 0x8, addend: 0x0, symName: __ZN6nombreD2Ev, symObjAddr: 0x5694, symBinAddr: 0x100007968, symSize: 0xCC }
  - { offsetInCU: 0xB453, offset: 0xB453, size: 0x8, addend: 0x0, symName: __ZN9registroPD2Ev, symObjAddr: 0x5760, symBinAddr: 0x100007A34, symSize: 0x98 }
  - { offsetInCU: 0xB47F, offset: 0xB47F, size: 0x8, addend: 0x0, symName: __ZNSt3__114basic_ifstreamIcNS_11char_traitsIcEEED2Ev, symObjAddr: 0x57F8, symBinAddr: 0x100007ACC, symSize: 0x9C }
  - { offsetInCU: 0xB4B9, offset: 0xB4B9, size: 0x8, addend: 0x0, symName: __ZTv0_n24_NSt3__114basic_ifstreamIcNS_11char_traitsIcEEED1Ev, symObjAddr: 0x5894, symBinAddr: 0x100007B68, symSize: 0x28 }
  - { offsetInCU: 0xB4D0, offset: 0xB4D0, size: 0x8, addend: 0x0, symName: __ZNSt3__123__libcpp_numeric_limitsIlLb1EE3maxB7v160006Ev, symObjAddr: 0x58BC, symBinAddr: 0x100007B90, symSize: 0x8 }
  - { offsetInCU: 0xB4E4, offset: 0xB4E4, size: 0x8, addend: 0x0, symName: __ZNSt3__112basic_stringIcNS_11char_traitsIcEENS_9allocatorIcEEEC2B7v160006IDnEEPKc, symObjAddr: 0x58C4, symBinAddr: 0x100007B98, symSize: 0x60 }
  - { offsetInCU: 0xB527, offset: 0xB527, size: 0x8, addend: 0x0, symName: __ZNSt3__117__compressed_pairINS_12basic_stringIcNS_11char_traitsIcEENS_9allocatorIcEEE5__repES5_EC1B7v160006INS_18__default_init_tagESA_EEOT_OT0_, symObjAddr: 0x5924, symBinAddr: 0x100007BF8, symSize: 0x3C }
  - { offsetInCU: 0xB57F, offset: 0xB57F, size: 0x8, addend: 0x0, symName: __ZNSt3__111char_traitsIcE6lengthEPKc, symObjAddr: 0x5960, symBinAddr: 0x100007C34, symSize: 0x48 }
  - { offsetInCU: 0xB5A2, offset: 0xB5A2, size: 0x8, addend: 0x0, symName: __ZNSt3__117__compressed_pairINS_12basic_stringIcNS_11char_traitsIcEENS_9allocatorIcEEE5__repES5_EC2B7v160006INS_18__default_init_tagESA_EEOT_OT0_, symObjAddr: 0x59B8, symBinAddr: 0x100007C8C, symSize: 0x3C }
  - { offsetInCU: 0xB5FA, offset: 0xB5FA, size: 0x8, addend: 0x0, symName: __ZNSt3__122__compressed_pair_elemINS_12basic_stringIcNS_11char_traitsIcEENS_9allocatorIcEEE5__repELi0ELb0EEC2B7v160006ENS_18__default_init_tagE, symObjAddr: 0x59F4, symBinAddr: 0x100007CC8, symSize: 0x14 }
  - { offsetInCU: 0xB62F, offset: 0xB62F, size: 0x8, addend: 0x0, symName: __ZNSt3__122__compressed_pair_elemINS_9allocatorIcEELi1ELb1EEC2B7v160006ENS_18__default_init_tagE, symObjAddr: 0x5A08, symBinAddr: 0x100007CDC, symSize: 0x2C }
  - { offsetInCU: 0xB664, offset: 0xB664, size: 0x8, addend: 0x0, symName: __ZNSt3__19allocatorIcEC2B7v160006Ev, symObjAddr: 0x5A34, symBinAddr: 0x100007D08, symSize: 0x2C }
  - { offsetInCU: 0xB68E, offset: 0xB68E, size: 0x8, addend: 0x0, symName: __ZNSt3__116__non_trivial_ifILb1ENS_9allocatorIcEEEC2B7v160006Ev, symObjAddr: 0x5A60, symBinAddr: 0x100007D34, symSize: 0x14 }
  - { offsetInCU: 0xB6B8, offset: 0xB6B8, size: 0x8, addend: 0x0, symName: __ZNSt3__112basic_stringIcNS_11char_traitsIcEENS_9allocatorIcEEE15__make_iteratorB7v160006EPc, symObjAddr: 0x5A98, symBinAddr: 0x100007D6C, symSize: 0x34 }
  - { offsetInCU: 0xB6ED, offset: 0xB6ED, size: 0x8, addend: 0x0, symName: __ZNSt3__112basic_stringIcNS_11char_traitsIcEENS_9allocatorIcEEE13__get_pointerB7v160006Ev, symObjAddr: 0x5ACC, symBinAddr: 0x100007DA0, symSize: 0x54 }
  - { offsetInCU: 0xB713, offset: 0xB713, size: 0x8, addend: 0x0, symName: __ZNSt3__111__wrap_iterIPcEC1B7v160006EPKvS1_, symObjAddr: 0x5B20, symBinAddr: 0x100007DF4, symSize: 0x3C }
  - { offsetInCU: 0xB759, offset: 0xB759, size: 0x8, addend: 0x0, symName: __ZNSt3__111__wrap_iterIPcEC2B7v160006EPKvS1_, symObjAddr: 0x5B5C, symBinAddr: 0x100007E30, symSize: 0x24 }
  - { offsetInCU: 0xB79F, offset: 0xB79F, size: 0x8, addend: 0x0, symName: __ZNKSt3__112basic_stringIcNS_11char_traitsIcEENS_9allocatorIcEEE9__is_longB7v160006Ev, symObjAddr: 0x5B80, symBinAddr: 0x100007E54, symSize: 0x74 }
  - { offsetInCU: 0xB7C5, offset: 0xB7C5, size: 0x8, addend: 0x0, symName: __ZNSt3__112basic_stringIcNS_11char_traitsIcEENS_9allocatorIcEEE18__get_long_pointerB7v160006Ev, symObjAddr: 0x5BF4, symBinAddr: 0x100007EC8, symSize: 0x28 }
  - { offsetInCU: 0xB7EB, offset: 0xB7EB, size: 0x8, addend: 0x0, symName: __ZNSt3__112basic_stringIcNS_11char_traitsIcEENS_9allocatorIcEEE19__get_short_pointerB7v160006Ev, symObjAddr: 0x5C1C, symBinAddr: 0x100007EF0, symSize: 0x28 }
  - { offsetInCU: 0xB811, offset: 0xB811, size: 0x8, addend: 0x0, symName: __ZNKSt3__117__compressed_pairINS_12basic_stringIcNS_11char_traitsIcEENS_9allocatorIcEEE5__repES5_E5firstB7v160006Ev, symObjAddr: 0x5C50, symBinAddr: 0x100007F24, symSize: 0x24 }
  - { offsetInCU: 0xB837, offset: 0xB837, size: 0x8, addend: 0x0, symName: __ZNKSt3__122__compressed_pair_elemINS_12basic_stringIcNS_11char_traitsIcEENS_9allocatorIcEEE5__repELi0ELb0EE5__getB7v160006Ev, symObjAddr: 0x5C74, symBinAddr: 0x100007F48, symSize: 0x14 }
  - { offsetInCU: 0xB85D, offset: 0xB85D, size: 0x8, addend: 0x0, symName: __ZNSt3__117__compressed_pairINS_12basic_stringIcNS_11char_traitsIcEENS_9allocatorIcEEE5__repES5_E5firstB7v160006Ev, symObjAddr: 0x5C88, symBinAddr: 0x100007F5C, symSize: 0x24 }
  - { offsetInCU: 0xB883, offset: 0xB883, size: 0x8, addend: 0x0, symName: __ZNSt3__122__compressed_pair_elemINS_12basic_stringIcNS_11char_traitsIcEENS_9allocatorIcEEE5__repELi0ELb0EE5__getB7v160006Ev, symObjAddr: 0x5CAC, symBinAddr: 0x100007F80, symSize: 0x14 }
  - { offsetInCU: 0xB8A9, offset: 0xB8A9, size: 0x8, addend: 0x0, symName: __ZNSt3__114pointer_traitsIPcE10pointer_toB7v160006ERc, symObjAddr: 0x5CC0, symBinAddr: 0x100007F94, symSize: 0x14 }
  - { offsetInCU: 0xB8CC, offset: 0xB8CC, size: 0x8, addend: 0x0, symName: __ZNKSt3__112basic_stringIcNS_11char_traitsIcEENS_9allocatorIcEEE4sizeB7v160006Ev, symObjAddr: 0x5CD4, symBinAddr: 0x100007FA8, symSize: 0x54 }
  - { offsetInCU: 0xB8F2, offset: 0xB8F2, size: 0x8, addend: 0x0, symName: __ZNKSt3__112basic_stringIcNS_11char_traitsIcEENS_9allocatorIcEEE15__get_long_sizeB7v160006Ev, symObjAddr: 0x5D28, symBinAddr: 0x100007FFC, symSize: 0x28 }
  - { offsetInCU: 0xB918, offset: 0xB918, size: 0x8, addend: 0x0, symName: __ZNKSt3__112basic_stringIcNS_11char_traitsIcEENS_9allocatorIcEEE16__get_short_sizeB7v160006Ev, symObjAddr: 0x5D50, symBinAddr: 0x100008024, symSize: 0x34 }
  - { offsetInCU: 0xB93E, offset: 0xB93E, size: 0x8, addend: 0x0, symName: __ZNKSt3__111__wrap_iterIPcE4baseB7v160006Ev, symObjAddr: 0x5DCC, symBinAddr: 0x1000080A0, symSize: 0x18 }
  - { offsetInCU: 0xB964, offset: 0xB964, size: 0x8, addend: 0x0, symName: __ZNSt3__19basic_iosIcNS_11char_traitsIcEEEC2B7v160006Ev, symObjAddr: 0x5DE4, symBinAddr: 0x1000080B8, symSize: 0x44 }
  - { offsetInCU: 0xB98E, offset: 0xB98E, size: 0x8, addend: 0x0, symName: __ZNSt3__113basic_ostreamIcNS_11char_traitsIcEEEC2B7v160006EPNS_15basic_streambufIcS2_EE, symObjAddr: 0x5E28, symBinAddr: 0x1000080FC, symSize: 0x60 }
  - { offsetInCU: 0xB9D3, offset: 0xB9D3, size: 0x8, addend: 0x0, symName: __ZNSt3__113basic_filebufIcNS_11char_traitsIcEEE4openERKNS_12basic_stringIcS2_NS_9allocatorIcEEEEj, symObjAddr: 0x5E88, symBinAddr: 0x10000815C, symSize: 0x44 }
  - { offsetInCU: 0xBA17, offset: 0xBA17, size: 0x8, addend: 0x0, symName: __ZNSt3__19basic_iosIcNS_11char_traitsIcEEE8setstateB7v160006Ej, symObjAddr: 0x5ECC, symBinAddr: 0x1000081A0, symSize: 0x2C }
  - { offsetInCU: 0xBA4C, offset: 0xBA4C, size: 0x8, addend: 0x0, symName: __ZNSt3__18ios_baseC2B7v160006Ev, symObjAddr: 0x5EF8, symBinAddr: 0x1000081CC, symSize: 0x24 }
  - { offsetInCU: 0xBA76, offset: 0xBA76, size: 0x8, addend: 0x0, symName: __ZNSt3__19basic_iosIcNS_11char_traitsIcEEE4initB7v160006EPNS_15basic_streambufIcS2_EE, symObjAddr: 0x5F1C, symBinAddr: 0x1000081F0, symSize: 0x44 }
  - { offsetInCU: 0xBAAD, offset: 0xBAAD, size: 0x8, addend: 0x0, symName: __ZNSt3__18ios_base8setstateB7v160006Ej, symObjAddr: 0x5F60, symBinAddr: 0x100008234, symSize: 0x34 }
  - { offsetInCU: 0xBAE4, offset: 0xBAE4, size: 0x8, addend: 0x0, symName: __ZNKSt3__113basic_filebufIcNS_11char_traitsIcEEE7is_openEv, symObjAddr: 0x5F94, symBinAddr: 0x100008268, symSize: 0x24 }
  - { offsetInCU: 0xBB0C, offset: 0xBB0C, size: 0x8, addend: 0x0, symName: __ZNKSt3__112basic_stringIcNS_11char_traitsIcEENS_9allocatorIcEEE4dataB7v160006Ev, symObjAddr: 0x61AC, symBinAddr: 0x100008480, symSize: 0x28 }
  - { offsetInCU: 0xBB50, offset: 0xBB50, size: 0x8, addend: 0x0, symName: __ZNKSt3__113basic_ostreamIcNS_11char_traitsIcEEE6sentrycvbB7v160006Ev, symObjAddr: 0x61D4, symBinAddr: 0x1000084A8, symSize: 0x1C }
  - { offsetInCU: 0xBB76, offset: 0xBB76, size: 0x8, addend: 0x0, symName: __ZNSt3__119ostreambuf_iteratorIcNS_11char_traitsIcEEEC1B7v160006ERNS_13basic_ostreamIcS2_EE, symObjAddr: 0x6438, symBinAddr: 0x10000870C, symSize: 0x34 }
  - { offsetInCU: 0xBBAE, offset: 0xBBAE, size: 0x8, addend: 0x0, symName: __ZNKSt3__18ios_base5flagsB7v160006Ev, symObjAddr: 0x646C, symBinAddr: 0x100008740, symSize: 0x18 }
  - { offsetInCU: 0xBBD6, offset: 0xBBD6, size: 0x8, addend: 0x0, symName: __ZNKSt3__19basic_iosIcNS_11char_traitsIcEEE4fillB7v160006Ev, symObjAddr: 0x6484, symBinAddr: 0x100008758, symSize: 0x64 }
  - { offsetInCU: 0xBBFE, offset: 0xBBFE, size: 0x8, addend: 0x0, symName: __ZNKSt3__119ostreambuf_iteratorIcNS_11char_traitsIcEEE6failedB7v160006Ev, symObjAddr: 0x64E8, symBinAddr: 0x1000087BC, symSize: 0x24 }
  - { offsetInCU: 0xBC24, offset: 0xBC24, size: 0x8, addend: 0x0, symName: __ZNKSt3__18ios_base5widthB7v160006Ev, symObjAddr: 0x650C, symBinAddr: 0x1000087E0, symSize: 0x18 }
  - { offsetInCU: 0xBC4C, offset: 0xBC4C, size: 0x8, addend: 0x0, symName: __ZNSt3__115basic_streambufIcNS_11char_traitsIcEEE5sputnB7v160006EPKcl, symObjAddr: 0x6524, symBinAddr: 0x1000087F8, symSize: 0x3C }
  - { offsetInCU: 0xBC8E, offset: 0xBC8E, size: 0x8, addend: 0x0, symName: __ZNSt3__112basic_stringIcNS_11char_traitsIcEENS_9allocatorIcEEEC1B7v160006Emc, symObjAddr: 0x6560, symBinAddr: 0x100008834, symSize: 0x3C }
  - { offsetInCU: 0xBCD6, offset: 0xBCD6, size: 0x8, addend: 0x0, symName: __ZNSt3__18ios_base5widthB7v160006El, symObjAddr: 0x659C, symBinAddr: 0x100008870, symSize: 0x2C }
  - { offsetInCU: 0xBD1C, offset: 0xBD1C, size: 0x8, addend: 0x0, symName: __ZNSt3__112basic_stringIcNS_11char_traitsIcEENS_9allocatorIcEEEC2B7v160006Emc, symObjAddr: 0x65C8, symBinAddr: 0x10000889C, symSize: 0x54 }
  - { offsetInCU: 0xBD64, offset: 0xBD64, size: 0x8, addend: 0x0, symName: __ZNSt3__119ostreambuf_iteratorIcNS_11char_traitsIcEEEC2B7v160006ERNS_13basic_ostreamIcS2_EE, symObjAddr: 0x661C, symBinAddr: 0x1000088F0, symSize: 0x68 }
  - { offsetInCU: 0xBD9C, offset: 0xBD9C, size: 0x8, addend: 0x0, symName: __ZNKSt3__19basic_iosIcNS_11char_traitsIcEEE5rdbufB7v160006Ev, symObjAddr: 0x6684, symBinAddr: 0x100008958, symSize: 0x24 }
  - { offsetInCU: 0xBDC4, offset: 0xBDC4, size: 0x8, addend: 0x0, symName: __ZNKSt3__18ios_base5rdbufB7v160006Ev, symObjAddr: 0x66A8, symBinAddr: 0x10000897C, symSize: 0x18 }
  - { offsetInCU: 0xBDEA, offset: 0xBDEA, size: 0x8, addend: 0x0, symName: __ZNSt3__111char_traitsIcE11eq_int_typeEii, symObjAddr: 0x66C0, symBinAddr: 0x100008994, symSize: 0x28 }
  - { offsetInCU: 0xBE1B, offset: 0xBE1B, size: 0x8, addend: 0x0, symName: __ZNKSt3__19basic_iosIcNS_11char_traitsIcEEE5widenB7v160006Ec, symObjAddr: 0x66E8, symBinAddr: 0x1000089BC, symSize: 0x8C }
  - { offsetInCU: 0xBE7F, offset: 0xBE7F, size: 0x8, addend: 0x0, symName: __ZNKSt3__15ctypeIcE5widenB7v160006Ec, symObjAddr: 0x67A0, symBinAddr: 0x100008A74, symSize: 0x38 }
  - { offsetInCU: 0xBEB4, offset: 0xBEB4, size: 0x8, addend: 0x0, symName: __ZNKSt3__112basic_stringIcNS_11char_traitsIcEENS_9allocatorIcEEE13__get_pointerB7v160006Ev, symObjAddr: 0x67EC, symBinAddr: 0x100008AC0, symSize: 0x54 }
  - { offsetInCU: 0xBEDA, offset: 0xBEDA, size: 0x8, addend: 0x0, symName: __ZNKSt3__112basic_stringIcNS_11char_traitsIcEENS_9allocatorIcEEE18__get_long_pointerB7v160006Ev, symObjAddr: 0x6840, symBinAddr: 0x100008B14, symSize: 0x28 }
  - { offsetInCU: 0xBF00, offset: 0xBF00, size: 0x8, addend: 0x0, symName: __ZNKSt3__112basic_stringIcNS_11char_traitsIcEENS_9allocatorIcEEE19__get_short_pointerB7v160006Ev, symObjAddr: 0x6868, symBinAddr: 0x100008B3C, symSize: 0x28 }
  - { offsetInCU: 0xBF26, offset: 0xBF26, size: 0x8, addend: 0x0, symName: __ZNSt3__114pointer_traitsIPKcE10pointer_toB7v160006ERS1_, symObjAddr: 0x6890, symBinAddr: 0x100008B64, symSize: 0x14 }
  - { offsetInCU: 0xBF49, offset: 0xBF49, size: 0x8, addend: 0x0, symName: __ZNSt3__114basic_iostreamIcNS_11char_traitsIcEEEC2B7v160006EPNS_15basic_streambufIcS2_EE, symObjAddr: 0x68A4, symBinAddr: 0x100008B78, symSize: 0xB4 }
  - { offsetInCU: 0xBF8F, offset: 0xBF8F, size: 0x8, addend: 0x0, symName: __ZNSt3__115basic_stringbufIcNS_11char_traitsIcEENS_9allocatorIcEEEC1B7v160006ERKNS_12basic_stringIcS2_S4_EEj, symObjAddr: 0x6958, symBinAddr: 0x100008C2C, symSize: 0x3C }
  - { offsetInCU: 0xBFD5, offset: 0xBFD5, size: 0x8, addend: 0x0, symName: __ZNSt3__113basic_istreamIcNS_11char_traitsIcEEEC2B7v160006EPNS_15basic_streambufIcS2_EE, symObjAddr: 0x6994, symBinAddr: 0x100008C68, symSize: 0x64 }
  - { offsetInCU: 0xC01A, offset: 0xC01A, size: 0x8, addend: 0x0, symName: __ZNSt3__113basic_ostreamIcNS_11char_traitsIcEEEC2B7v160006Ev, symObjAddr: 0x69F8, symBinAddr: 0x100008CCC, symSize: 0x34 }
  - { offsetInCU: 0xC051, offset: 0xC051, size: 0x8, addend: 0x0, symName: __ZNSt3__115basic_stringbufIcNS_11char_traitsIcEENS_9allocatorIcEEEC2B7v160006ERKNS_12basic_stringIcS2_S4_EEj, symObjAddr: 0x6A2C, symBinAddr: 0x100008D00, symSize: 0xD8 }
  - { offsetInCU: 0xC097, offset: 0xC097, size: 0x8, addend: 0x0, symName: __ZNKSt3__112basic_stringIcNS_11char_traitsIcEENS_9allocatorIcEEE13get_allocatorB7v160006Ev, symObjAddr: 0x6B04, symBinAddr: 0x100008DD8, symSize: 0x24 }
  - { offsetInCU: 0xC0BD, offset: 0xC0BD, size: 0x8, addend: 0x0, symName: __ZNSt3__112basic_stringIcNS_11char_traitsIcEENS_9allocatorIcEEEC1B7v160006ERKS4_, symObjAddr: 0x6B28, symBinAddr: 0x100008DFC, symSize: 0x34 }
  - { offsetInCU: 0xC0F6, offset: 0xC0F6, size: 0x8, addend: 0x0, symName: __ZNKSt3__112basic_stringIcNS_11char_traitsIcEENS_9allocatorIcEEE7__allocB7v160006Ev, symObjAddr: 0x6B5C, symBinAddr: 0x100008E30, symSize: 0x24 }
  - { offsetInCU: 0xC11C, offset: 0xC11C, size: 0x8, addend: 0x0, symName: __ZNKSt3__117__compressed_pairINS_12basic_stringIcNS_11char_traitsIcEENS_9allocatorIcEEE5__repES5_E6secondB7v160006Ev, symObjAddr: 0x6B80, symBinAddr: 0x100008E54, symSize: 0x24 }
  - { offsetInCU: 0xC142, offset: 0xC142, size: 0x8, addend: 0x0, symName: __ZNKSt3__122__compressed_pair_elemINS_9allocatorIcEELi1ELb1EE5__getB7v160006Ev, symObjAddr: 0x6BA4, symBinAddr: 0x100008E78, symSize: 0x14 }
  - { offsetInCU: 0xC168, offset: 0xC168, size: 0x8, addend: 0x0, symName: __ZNSt3__112basic_stringIcNS_11char_traitsIcEENS_9allocatorIcEEEC2B7v160006ERKS4_, symObjAddr: 0x6BB8, symBinAddr: 0x100008E8C, symSize: 0x48 }
  - { offsetInCU: 0xC1A1, offset: 0xC1A1, size: 0x8, addend: 0x0, symName: __ZNSt3__117__compressed_pairINS_12basic_stringIcNS_11char_traitsIcEENS_9allocatorIcEEE5__repES5_EC1B7v160006INS_18__default_init_tagERKS5_EEOT_OT0_, symObjAddr: 0x6C00, symBinAddr: 0x100008ED4, symSize: 0x3C }
  - { offsetInCU: 0xC1F9, offset: 0xC1F9, size: 0x8, addend: 0x0, symName: __ZNSt3__112basic_stringIcNS_11char_traitsIcEENS_9allocatorIcEEE14__default_initB7v160006Ev, symObjAddr: 0x6C3C, symBinAddr: 0x100008F10, symSize: 0xB0 }
  - { offsetInCU: 0xC24C, offset: 0xC24C, size: 0x8, addend: 0x0, symName: __ZNSt3__117__compressed_pairINS_12basic_stringIcNS_11char_traitsIcEENS_9allocatorIcEEE5__repES5_EC2B7v160006INS_18__default_init_tagERKS5_EEOT_OT0_, symObjAddr: 0x6CEC, symBinAddr: 0x100008FC0, symSize: 0x40 }
  - { offsetInCU: 0xC2A4, offset: 0xC2A4, size: 0x8, addend: 0x0, symName: __ZNSt3__122__compressed_pair_elemINS_9allocatorIcEELi1ELb1EEC2B7v160006IRKS2_vEEOT_, symObjAddr: 0x6D2C, symBinAddr: 0x100009000, symSize: 0x18 }
  - { offsetInCU: 0xC2E6, offset: 0xC2E6, size: 0x8, addend: 0x0, symName: __ZNSt3__112basic_stringIcNS_11char_traitsIcEENS_9allocatorIcEEE11__recommendB7v160006Em, symObjAddr: 0x6D44, symBinAddr: 0x100009018, symSize: 0x9C }
  - { offsetInCU: 0xC319, offset: 0xC319, size: 0x8, addend: 0x0, symName: __ZNSt3__116allocator_traitsINS_9allocatorIcEEE8allocateB7v160006ERS2_m, symObjAddr: 0x6DE0, symBinAddr: 0x1000090B4, symSize: 0x2C }
  - { offsetInCU: 0xC34C, offset: 0xC34C, size: 0x8, addend: 0x0, symName: __ZNSt3__112basic_stringIcNS_11char_traitsIcEENS_9allocatorIcEEE7__allocB7v160006Ev, symObjAddr: 0x6E0C, symBinAddr: 0x1000090E0, symSize: 0x24 }
  - { offsetInCU: 0xC372, offset: 0xC372, size: 0x8, addend: 0x0, symName: __ZNSt3__112basic_stringIcNS_11char_traitsIcEENS_9allocatorIcEEE16__begin_lifetimeB7v160006EPcm, symObjAddr: 0x6E30, symBinAddr: 0x100009104, symSize: 0x14 }
  - { offsetInCU: 0xC3A5, offset: 0xC3A5, size: 0x8, addend: 0x0, symName: __ZNSt3__112basic_stringIcNS_11char_traitsIcEENS_9allocatorIcEEE18__set_long_pointerB7v160006EPc, symObjAddr: 0x6E44, symBinAddr: 0x100009118, symSize: 0x38 }
  - { offsetInCU: 0xC3DA, offset: 0xC3DA, size: 0x8, addend: 0x0, symName: __ZNSt3__112basic_stringIcNS_11char_traitsIcEENS_9allocatorIcEEE14__set_long_capB7v160006Em, symObjAddr: 0x6E7C, symBinAddr: 0x100009150, symSize: 0x70 }
  - { offsetInCU: 0xC40F, offset: 0xC40F, size: 0x8, addend: 0x0, symName: __ZNSt3__112basic_stringIcNS_11char_traitsIcEENS_9allocatorIcEEE15__set_long_sizeB7v160006Em, symObjAddr: 0x6EEC, symBinAddr: 0x1000091C0, symSize: 0x38 }
  - { offsetInCU: 0xC444, offset: 0xC444, size: 0x8, addend: 0x0, symName: __ZNSt3__112basic_stringIcNS_11char_traitsIcEENS_9allocatorIcEEE10__align_itB7v160006ILm16EEEmm, symObjAddr: 0x6F24, symBinAddr: 0x1000091F8, symSize: 0x1C }
  - { offsetInCU: 0xC472, offset: 0xC472, size: 0x8, addend: 0x0, symName: __ZNSt3__19allocatorIcE8allocateB7v160006Em, symObjAddr: 0x6F40, symBinAddr: 0x100009214, symSize: 0x84 }
  - { offsetInCU: 0xC4B0, offset: 0xC4B0, size: 0x8, addend: 0x0, symName: __ZNSt3__116allocator_traitsINS_9allocatorIcEEE8max_sizeB7v160006IS2_vEEmRKS2_, symObjAddr: 0x6FC4, symBinAddr: 0x100009298, symSize: 0x24 }
  - { offsetInCU: 0xC4DE, offset: 0xC4DE, size: 0x8, addend: 0x0, symName: __ZNKSt3__19allocatorIcE8max_sizeB7v160006Ev, symObjAddr: 0x7044, symBinAddr: 0x100009318, symSize: 0x14 }
  - { offsetInCU: 0xC504, offset: 0xC504, size: 0x8, addend: 0x0, symName: __ZNSt3__117__compressed_pairINS_12basic_stringIcNS_11char_traitsIcEENS_9allocatorIcEEE5__repES5_E6secondB7v160006Ev, symObjAddr: 0x707C, symBinAddr: 0x100009350, symSize: 0x24 }
  - { offsetInCU: 0xC52A, offset: 0xC52A, size: 0x8, addend: 0x0, symName: __ZNSt3__122__compressed_pair_elemINS_9allocatorIcEELi1ELb1EE5__getB7v160006Ev, symObjAddr: 0x70A0, symBinAddr: 0x100009374, symSize: 0x14 }
  - { offsetInCU: 0xC550, offset: 0xC550, size: 0x8, addend: 0x0, symName: __ZNSt3__112basic_stringIcNS_11char_traitsIcEENS_9allocatorIcEEEC2B7v160006Ev, symObjAddr: 0x70B4, symBinAddr: 0x100009388, symSize: 0x44 }
  - { offsetInCU: 0xC598, offset: 0xC598, size: 0x8, addend: 0x0, symName: __ZNKSt3__113basic_istreamIcNS_11char_traitsIcEEE6sentrycvbB7v160006Ev, symObjAddr: 0x70F8, symBinAddr: 0x1000093CC, symSize: 0x1C }
  - { offsetInCU: 0xC5BE, offset: 0xC5BE, size: 0x8, addend: 0x0, symName: __ZNSt3__112basic_stringIcNS_11char_traitsIcEENS_9allocatorIcEEE5clearB7v160006Ev, symObjAddr: 0x7114, symBinAddr: 0x1000093E8, symSize: 0x9C }
  - { offsetInCU: 0xC5E6, offset: 0xC5E6, size: 0x8, addend: 0x0, symName: __ZNSt3__115basic_streambufIcNS_11char_traitsIcEEE6sbumpcB7v160006Ev, symObjAddr: 0x71B0, symBinAddr: 0x100009484, symSize: 0x78 }
  - { offsetInCU: 0xC60C, offset: 0xC60C, size: 0x8, addend: 0x0, symName: __ZNSt3__111char_traitsIcE12to_char_typeEi, symObjAddr: 0x7228, symBinAddr: 0x1000094FC, symSize: 0x18 }
  - { offsetInCU: 0xC62F, offset: 0xC62F, size: 0x8, addend: 0x0, symName: __ZNSt3__111char_traitsIcE2eqEcc, symObjAddr: 0x7240, symBinAddr: 0x100009514, symSize: 0x28 }
  - { offsetInCU: 0xC660, offset: 0xC660, size: 0x8, addend: 0x0, symName: __ZNKSt3__112basic_stringIcNS_11char_traitsIcEENS_9allocatorIcEEE8max_sizeB7v160006Ev, symObjAddr: 0x7268, symBinAddr: 0x10000953C, symSize: 0xAC }
  - { offsetInCU: 0xC6B3, offset: 0xC6B3, size: 0x8, addend: 0x0, symName: __ZNSt3__18ios_base18__setstate_nothrowB7v160006Ej, symObjAddr: 0x7314, symBinAddr: 0x1000095E8, symSize: 0x64 }
  - { offsetInCU: 0xC6E8, offset: 0xC6E8, size: 0x8, addend: 0x0, symName: __ZNKSt3__19basic_iosIcNS_11char_traitsIcEEE10exceptionsB7v160006Ev, symObjAddr: 0x7378, symBinAddr: 0x10000964C, symSize: 0x24 }
  - { offsetInCU: 0xC70E, offset: 0xC70E, size: 0x8, addend: 0x0, symName: __ZNSt3__111char_traitsIcE6assignERcRKc, symObjAddr: 0x73AC, symBinAddr: 0x100009680, symSize: 0x24 }
  - { offsetInCU: 0xC73F, offset: 0xC73F, size: 0x8, addend: 0x0, symName: __ZNSt3__112basic_stringIcNS_11char_traitsIcEENS_9allocatorIcEEE16__set_short_sizeB7v160006Em, symObjAddr: 0x73D0, symBinAddr: 0x1000096A4, symSize: 0x78 }
  - { offsetInCU: 0xC774, offset: 0xC774, size: 0x8, addend: 0x0, symName: __ZNSt3__111char_traitsIcE11to_int_typeEc, symObjAddr: 0x7448, symBinAddr: 0x10000971C, symSize: 0x14 }
  - { offsetInCU: 0xC797, offset: 0xC797, size: 0x8, addend: 0x0, symName: __ZNSt3__114numeric_limitsImE3maxB7v160006Ev, symObjAddr: 0x745C, symBinAddr: 0x100009730, symSize: 0x14 }
  - { offsetInCU: 0xC7AB, offset: 0xC7AB, size: 0x8, addend: 0x0, symName: __ZNSt3__123__libcpp_numeric_limitsImLb1EE3maxB7v160006Ev, symObjAddr: 0x7470, symBinAddr: 0x100009744, symSize: 0x8 }
  - { offsetInCU: 0xC7BF, offset: 0xC7BF, size: 0x8, addend: 0x0, symName: __ZNKSt3__18ios_base10exceptionsB7v160006Ev, symObjAddr: 0x7478, symBinAddr: 0x10000974C, symSize: 0x18 }
  - { offsetInCU: 0xC7E7, offset: 0xC7E7, size: 0x8, addend: 0x0, symName: __ZNSt3__115basic_streambufIcNS_11char_traitsIcEEE5sgetcB7v160006Ev, symObjAddr: 0x7490, symBinAddr: 0x100009764, symSize: 0x70 }
  - { offsetInCU: 0xC80D, offset: 0xC80D, size: 0x8, addend: 0x0, symName: __ZNKSt3__15ctypeIcE2isB7v160006Ejc, symObjAddr: 0x7500, symBinAddr: 0x1000097D4, symSize: 0x7C }
  - { offsetInCU: 0xC850, offset: 0xC850, size: 0x8, addend: 0x0, symName: __Z7isasciii, symObjAddr: 0x757C, symBinAddr: 0x100009850, symSize: 0x24 }
  - { offsetInCU: 0xC87D, offset: 0xC87D, size: 0x8, addend: 0x0, symName: __ZNKSt3__19basic_iosIcNS_11char_traitsIcEEE4failB7v160006Ev, symObjAddr: 0x75A0, symBinAddr: 0x100009874, symSize: 0x28 }
  - { offsetInCU: 0xC8A3, offset: 0xC8A3, size: 0x8, addend: 0x0, symName: __ZNKSt3__18ios_base4failB7v160006Ev, symObjAddr: 0x75C8, symBinAddr: 0x10000989C, symSize: 0x28 }
  - { offsetInCU: 0xC8CB, offset: 0xC8CB, size: 0x8, addend: 0x0, symName: __ZNSt3__116allocator_traitsINS_9allocatorIcEEE37select_on_container_copy_constructionB7v160006IS2_vvEES2_RKS2_, symObjAddr: 0x75F0, symBinAddr: 0x1000098C4, symSize: 0x10 }
  - { offsetInCU: 0xC8FA, offset: 0xC8FA, size: 0x8, addend: 0x0, symName: __ZNSt3__112basic_stringIcNS_11char_traitsIcEENS_9allocatorIcEEEC1B7v160006ENS_24__uninitialized_size_tagEmRKS4_, symObjAddr: 0x7600, symBinAddr: 0x1000098D4, symSize: 0x3C }
  - { offsetInCU: 0xC94E, offset: 0xC94E, size: 0x8, addend: 0x0, symName: __ZNSt3__111char_traitsIcE4copyEPcPKcm, symObjAddr: 0x7650, symBinAddr: 0x100009924, symSize: 0x80 }
  - { offsetInCU: 0xC98D, offset: 0xC98D, size: 0x8, addend: 0x0, symName: __ZNSt3__111char_traitsIcE6assignEPcmc, symObjAddr: 0x76D0, symBinAddr: 0x1000099A4, symSize: 0x58 }
  - { offsetInCU: 0xC9CC, offset: 0xC9CC, size: 0x8, addend: 0x0, symName: __ZNSt3__112basic_stringIcNS_11char_traitsIcEENS_9allocatorIcEEEC2B7v160006ENS_24__uninitialized_size_tagEmRKS4_, symObjAddr: 0x7728, symBinAddr: 0x1000099FC, symSize: 0x118 }
  - { offsetInCU: 0xCA4D, offset: 0xCA4D, size: 0x8, addend: 0x0, symName: __ZNKSt3__112basic_stringIcNS_11char_traitsIcEENS_9allocatorIcEEE20__throw_length_errorB7v160006Ev, symObjAddr: 0x7840, symBinAddr: 0x100009B14, symSize: 0x1C }
  - { offsetInCU: 0xCA73, offset: 0xCA73, size: 0x8, addend: 0x0, symName: __ZNSt3__112basic_stringIcNS_11char_traitsIcEENS_9allocatorIcEEE13__fits_in_ssoB7v160006Em, symObjAddr: 0x785C, symBinAddr: 0x100009B30, symSize: 0x4C }
  - { offsetInCU: 0xCA97, offset: 0xCA97, size: 0x8, addend: 0x0, symName: __ZNSt12length_errorC1B7v160006EPKc, symObjAddr: 0x790C, symBinAddr: 0x100009BE0, symSize: 0x34 }
  - { offsetInCU: 0xCACF, offset: 0xCACF, size: 0x8, addend: 0x0, symName: __ZNSt12length_errorC2B7v160006EPKc, symObjAddr: 0x7940, symBinAddr: 0x100009C14, symSize: 0x4C }
  - { offsetInCU: 0xCB3E, offset: 0xCB3E, size: 0x8, addend: 0x0, symName: __ZNKSt3__114__copy_trivialclB7v160006IKccLi0EEENS_4pairIPT_PT0_EES5_S5_S7_, symObjAddr: 0x7BBC, symBinAddr: 0x100009E90, symSize: 0x48 }
  - { offsetInCU: 0xCBBF, offset: 0xCBBF, size: 0x8, addend: 0x0, symName: __ZNSt3__14pairIPKcS2_EC1B7v160006ERKS2_S5_, symObjAddr: 0x7D38, symBinAddr: 0x10000A00C, symSize: 0x3C }
  - { offsetInCU: 0xCC05, offset: 0xCC05, size: 0x8, addend: 0x0, symName: __ZNSt3__14pairIPKcS2_EC2B7v160006ERKS2_S5_, symObjAddr: 0x7D74, symBinAddr: 0x10000A048, symSize: 0x34 }
  - { offsetInCU: 0xCC4B, offset: 0xCC4B, size: 0x8, addend: 0x0, symName: __ZNSt3__118__unwrap_iter_implIPKcLb1EE8__unwrapB7v160006ES2_, symObjAddr: 0x7DA8, symBinAddr: 0x10000A07C, symSize: 0x24 }
  - { offsetInCU: 0xCC6E, offset: 0xCC6E, size: 0x8, addend: 0x0, symName: __ZNSt3__14pairIPKcPcEC1B7v160006ERKS2_RKS3_, symObjAddr: 0x7E80, symBinAddr: 0x10000A154, symSize: 0x3C }
  - { offsetInCU: 0xCCB4, offset: 0xCCB4, size: 0x8, addend: 0x0, symName: __ZNSt3__14pairIPKcPcEC2B7v160006ERKS2_RKS3_, symObjAddr: 0x7EBC, symBinAddr: 0x10000A190, symSize: 0x34 }
  - { offsetInCU: 0xCCFA, offset: 0xCCFA, size: 0x8, addend: 0x0, symName: __ZNSt3__118__unwrap_iter_implIPcLb1EE8__unwrapB7v160006ES1_, symObjAddr: 0x7EF0, symBinAddr: 0x10000A1C4, symSize: 0x24 }
  - { offsetInCU: 0xCD1D, offset: 0xCD1D, size: 0x8, addend: 0x0, symName: __ZNSt3__118__unwrap_iter_implIPKcLb1EE8__rewrapB7v160006ES2_S2_, symObjAddr: 0x7F64, symBinAddr: 0x10000A238, symSize: 0x48 }
  - { offsetInCU: 0xCD4E, offset: 0xCD4E, size: 0x8, addend: 0x0, symName: __ZNSt3__118__unwrap_iter_implIPcLb1EE8__rewrapB7v160006ES1_S1_, symObjAddr: 0x7FAC, symBinAddr: 0x10000A280, symSize: 0x48 }
  - { offsetInCU: 0xCD7F, offset: 0xCD7F, size: 0x8, addend: 0x0, symName: __ZNSt3__111char_traitsIcE4findEPKcmRS2_, symObjAddr: 0x82E8, symBinAddr: 0x10000A5BC, symSize: 0x84 }
  - { offsetInCU: 0xCDBE, offset: 0xCDBE, size: 0x8, addend: 0x0, symName: __ZNSt3__111char_traitsIcE7compareEPKcS3_m, symObjAddr: 0x836C, symBinAddr: 0x10000A640, symSize: 0x80 }
...
